target datalayout = "e-m:e-p270:32:32-p271:32:32-p272:64:64-i64:64-i128:128-f80:128-n8:16:32:64-S128"
target triple = "x86_64-pc-linux-gnu"

%struct._zval_struct = type { %union._zend_value, %union.anon, %union.anon.2 }
%union._zend_value = type { i64 }
%union.anon = type { i32 }
%union.anon.2 = type { i32 }
%struct._zend_array = type { %struct._zend_refcounted_h, %union.anon.5, i32, %union.anon.7, i32, i32, i32, i32, i64, ptr }
%struct._zend_refcounted_h = type { i32, %union.anon.3 }
%union.anon.3 = type { i32 }
%union.anon.5 = type { i32 }
%union.anon.7 = type { ptr }
%struct._zend_object = type { %struct._zend_refcounted_h, i32, ptr, ptr, ptr, [1 x %struct._zval_struct] }
%struct._zend_class_entry = type { i8, ptr, %union.anon.4, i32, i32, i32, i32, ptr, ptr, ptr, %struct._zend_array, %struct._zend_array, %struct._zend_array, ptr, ptr, ptr, ptr, ptr, ptr, ptr, ptr, ptr, ptr, ptr, ptr, ptr, ptr, ptr, ptr, ptr, ptr, ptr, %union.anon.8, ptr, ptr, ptr, ptr, i32, i32, %union.anon.9, ptr, ptr, ptr, ptr, i32, ptr, ptr, %union.anon.10 }
%union.anon.4 = type { ptr }
%union.anon.8 = type { ptr }
%union.anon.9 = type { ptr }
%union.anon.10 = type { %struct.anon.11 }
%struct.anon.11 = type { ptr, i32, i32 }
%struct._zend_class_iterator_funcs = type { ptr, ptr, ptr, ptr, ptr, ptr }
%struct._zend_user_iterator = type { %struct._zend_object_iterator, ptr, %struct._zval_struct }
%struct._zend_object_iterator = type { %struct._zend_object, %struct._zval_struct, ptr, i64 }
%struct._zend_reference = type { %struct._zend_refcounted_h, %struct._zval_struct, %union.zend_property_info_source_list }
%union.zend_property_info_source_list = type { ptr }
%struct.anon.0 = type { i8, i8, %union.anon.1 }
%union.anon.1 = type { i16 }

; Function Attrs: nounwind uwtable
define void @zend_user_it_get_current_key(ptr noundef %0, ptr noundef %1) #0 {
  %3 = alloca ptr, align 8
  %4 = alloca ptr, align 8
  %5 = alloca ptr, align 8
  %6 = alloca ptr, align 8
  %7 = alloca ptr, align 8
  %8 = alloca ptr, align 8
  %9 = alloca ptr, align 8
  %10 = alloca ptr, align 8
  %11 = alloca i32, align 4
  %12 = alloca ptr, align 8
  %13 = alloca ptr, align 8
  %14 = alloca ptr, align 8
  %15 = alloca ptr, align 8
  %16 = alloca ptr, align 8
  %17 = alloca ptr, align 8
  %18 = alloca ptr, align 8
  %19 = alloca i32, align 4
  %20 = alloca ptr, align 8
  %21 = alloca ptr, align 8
  %22 = alloca ptr, align 8
  %23 = alloca i32, align 4
  %24 = alloca ptr, align 8
  %25 = alloca ptr, align 8
  %26 = alloca ptr, align 8
  %27 = alloca ptr, align 8
  %28 = alloca ptr, align 8
  %29 = alloca ptr, align 8
  %30 = alloca ptr, align 8
  %31 = alloca ptr, align 8
  store ptr %0, ptr %28, align 8
  store ptr %1, ptr %29, align 8
  %32 = load ptr, ptr %28, align 8
  store ptr %32, ptr %30, align 8
  %33 = load ptr, ptr %30, align 8
  %34 = getelementptr inbounds %struct._zend_user_iterator, ptr %33, i32 0, i32 0
  %35 = getelementptr inbounds %struct._zend_object_iterator, ptr %34, i32 0, i32 1
  store ptr %35, ptr %31, align 8
  %36 = load ptr, ptr %30, align 8
  %37 = getelementptr inbounds %struct._zend_user_iterator, ptr %36, i32 0, i32 1
  %38 = load ptr, ptr %37, align 8
  %39 = getelementptr inbounds %struct._zend_class_entry, ptr %38, i32 0, i32 30
  %40 = load ptr, ptr %39, align 8
  %41 = getelementptr inbounds %struct._zend_class_iterator_funcs, ptr %40, i32 0, i32 3
  %42 = load ptr, ptr %41, align 8
  %43 = load ptr, ptr %31, align 8
  %44 = getelementptr inbounds %struct._zval_struct, ptr %43, i32 0, i32 0
  %45 = load ptr, ptr %44, align 8
  %46 = load ptr, ptr %29, align 8
  store ptr %42, ptr %25, align 8
  store ptr %45, ptr %26, align 8
  store ptr %46, ptr %27, align 8
  %47 = load ptr, ptr %25, align 8
  %48 = load ptr, ptr %26, align 8
  %49 = load ptr, ptr %27, align 8
  store ptr %47, ptr %8, align 8
  store ptr %48, ptr %9, align 8
  store ptr %49, ptr %10, align 8
  store i32 0, ptr %11, align 4
  store ptr null, ptr %12, align 8
  %50 = load ptr, ptr %8, align 8
  %51 = load ptr, ptr %9, align 8
  %52 = load ptr, ptr %9, align 8
  %53 = getelementptr inbounds %struct._zend_object, ptr %52, i32 0, i32 2
  %54 = load ptr, ptr %53, align 8
  %55 = load ptr, ptr %10, align 8
  %56 = load i32, ptr %11, align 4
  %57 = load ptr, ptr %12, align 8
  call void @zend_call_known_function(ptr noundef %50, ptr noundef %51, ptr noundef %54, ptr noundef %55, i32 noundef %56, ptr noundef %57, ptr noundef null) #10
  %58 = load ptr, ptr %29, align 8
  store ptr %58, ptr %24, align 8
  %59 = load ptr, ptr %24, align 8
  %60 = getelementptr inbounds %struct._zval_struct, ptr %59, i32 0, i32 1
  %61 = load i8, ptr %60, align 8
  %62 = zext i8 %61 to i32
  %63 = icmp eq i32 %62, 10
  %64 = xor i1 %63, true
  %65 = xor i1 %64, true
  %66 = zext i1 %65 to i32
  %67 = sext i32 %66 to i64
  %68 = icmp ne i64 %67, 0
  br i1 %68, label %69, label %135

69:                                               ; preds = %2
  %70 = load ptr, ptr %29, align 8
  store ptr %70, ptr %13, align 8
  %71 = load ptr, ptr %13, align 8
  store ptr %71, ptr %7, align 8
  %72 = load ptr, ptr %7, align 8
  %73 = load ptr, ptr %72, align 8
  store ptr %73, ptr %4, align 8
  %74 = load ptr, ptr %4, align 8
  %75 = load i32, ptr %74, align 4
  %76 = icmp eq i32 %75, 1
  br i1 %76, label %77, label %95

77:                                               ; preds = %69
  %78 = load ptr, ptr %13, align 8
  store ptr %78, ptr %14, align 8
  %79 = load ptr, ptr %14, align 8
  %80 = load ptr, ptr %79, align 8
  store ptr %80, ptr %15, align 8
  %81 = load ptr, ptr %14, align 8
  store ptr %81, ptr %16, align 8
  %82 = load ptr, ptr %15, align 8
  %83 = getelementptr inbounds %struct._zend_reference, ptr %82, i32 0, i32 1
  store ptr %83, ptr %17, align 8
  %84 = load ptr, ptr %17, align 8
  %85 = load ptr, ptr %84, align 8
  store ptr %85, ptr %18, align 8
  %86 = load ptr, ptr %17, align 8
  %87 = getelementptr inbounds %struct._zval_struct, ptr %86, i32 0, i32 1
  %88 = load i32, ptr %87, align 8
  store i32 %88, ptr %19, align 4
  %89 = load ptr, ptr %18, align 8
  %90 = load ptr, ptr %16, align 8
  store ptr %89, ptr %90, align 8
  %91 = load i32, ptr %19, align 4
  %92 = load ptr, ptr %16, align 8
  %93 = getelementptr inbounds %struct._zval_struct, ptr %92, i32 0, i32 1
  store i32 %91, ptr %93, align 8
  %94 = load ptr, ptr %15, align 8
  call void @_efree_32(ptr noundef %94) #10
  br label %134

95:                                               ; preds = %69
  %96 = load ptr, ptr %13, align 8
  store ptr %96, ptr %6, align 8
  %97 = load ptr, ptr %6, align 8
  %98 = getelementptr inbounds %struct._zval_struct, ptr %97, i32 0, i32 1
  %99 = getelementptr inbounds %struct.anon.0, ptr %98, i32 0, i32 1
  %100 = load i8, ptr %99, align 1
  %101 = zext i8 %100 to i32
  %102 = icmp ne i32 %101, 0
  call void @llvm.assume(i1 %102)
  %103 = load ptr, ptr %6, align 8
  %104 = load ptr, ptr %103, align 8
  store ptr %104, ptr %3, align 8
  %105 = load ptr, ptr %3, align 8
  %106 = load i32, ptr %105, align 4
  %107 = icmp ugt i32 %106, 0
  call void @llvm.assume(i1 %107)
  %108 = load ptr, ptr %3, align 8
  %109 = load i32, ptr %108, align 4
  %110 = add i32 %109, -1
  store i32 %110, ptr %108, align 4
  %111 = load ptr, ptr %13, align 8
  store ptr %111, ptr %20, align 8
  %112 = load ptr, ptr %13, align 8
  %113 = load ptr, ptr %112, align 8
  %114 = getelementptr inbounds %struct._zend_reference, ptr %113, i32 0, i32 1
  store ptr %114, ptr %21, align 8
  %115 = load ptr, ptr %21, align 8
  %116 = load ptr, ptr %115, align 8
  store ptr %116, ptr %22, align 8
  %117 = load ptr, ptr %21, align 8
  %118 = getelementptr inbounds %struct._zval_struct, ptr %117, i32 0, i32 1
  %119 = load i32, ptr %118, align 8
  store i32 %119, ptr %23, align 4
  %120 = load ptr, ptr %22, align 8
  %121 = load ptr, ptr %20, align 8
  store ptr %120, ptr %121, align 8
  %122 = load i32, ptr %23, align 4
  %123 = load ptr, ptr %20, align 8
  %124 = getelementptr inbounds %struct._zval_struct, ptr %123, i32 0, i32 1
  store i32 %122, ptr %124, align 8
  %125 = load i32, ptr %23, align 4
  %126 = and i32 %125, 65280
  %127 = icmp ne i32 %126, 0
  br i1 %127, label %128, label %133

128:                                              ; preds = %95
  %129 = load ptr, ptr %22, align 8
  store ptr %129, ptr %5, align 8
  %130 = load ptr, ptr %5, align 8
  %131 = load i32, ptr %130, align 4
  %132 = add i32 %131, 1
  store i32 %132, ptr %130, align 4
  br label %133

133:                                              ; preds = %128, %95
  br label %134

134:                                              ; preds = %133, %77
  br label %135

135:                                              ; preds = %134, %2
  ret void
}