; Function Attrs: nounwind uwtable
define void @zend_user_it_get_current_key(ptr nocapture noundef readonly %0, ptr noundef %1) #0 {
  %3 = getelementptr inbounds i8, ptr %0, i64 56
  %4 = getelementptr inbounds i8, ptr %0, i64 88
  %5 = load ptr, ptr %4, align 8
  %6 = getelementptr inbounds i8, ptr %5, i64 368
  %7 = load ptr, ptr %6, align 8
  %8 = getelementptr inbounds i8, ptr %7, i64 24
  %9 = load ptr, ptr %8, align 8
  %10 = load ptr, ptr %3, align 8
  %11 = getelementptr inbounds i8, ptr %10, i64 16
  %12 = load ptr, ptr %11, align 8
  tail call void @zend_call_known_function(ptr noundef %9, ptr noundef %10, ptr noundef %12, ptr noundef %1, i32 noundef 0, ptr noundef null, ptr noundef null) #9
  %13 = getelementptr inbounds i8, ptr %1, i64 8
  %14 = load i8, ptr %13, align 8
  %15 = icmp eq i8 %14, 10
  br i1 %15, label %16, label %40

16:                                               ; preds = %2
  %17 = load ptr, ptr %1, align 8
  %18 = load i32, ptr %17, align 4
  %19 = icmp eq i32 %18, 1
  br i1 %19, label %20, label %25

20:                                               ; preds = %16
  %21 = getelementptr inbounds i8, ptr %17, i64 8
  %22 = load ptr, ptr %21, align 8
  %23 = getelementptr inbounds i8, ptr %17, i64 16
  %24 = load i32, ptr %23, align 8
  store ptr %22, ptr %1, align 8
  store i32 %24, ptr %13, align 8
  tail call void @_efree_32(ptr noundef nonnull %17) #9
  br label %40

25:                                               ; preds = %16
  %26 = getelementptr inbounds i8, ptr %1, i64 9
  %27 = load i8, ptr %26, align 1
  %28 = icmp ne i8 %27, 0
  tail call void @llvm.assume(i1 %28)
  %29 = icmp ne i32 %18, 0
  tail call void @llvm.assume(i1 %29)
  %30 = add i32 %18, -1
  store i32 %30, ptr %17, align 4
  %31 = load ptr, ptr %1, align 8
  %32 = getelementptr inbounds i8, ptr %31, i64 8
  %33 = load ptr, ptr %32, align 8
  %34 = getelementptr inbounds i8, ptr %31, i64 16
  %35 = load i32, ptr %34, align 8
  store ptr %33, ptr %1, align 8
  store i32 %35, ptr %13, align 8
  %36 = and i32 %35, 65280
  %.not = icmp eq i32 %36, 0
  br i1 %.not, label %40, label %37

37:                                               ; preds = %25
  %38 = load i32, ptr %33, align 4
  %39 = add i32 %38, 1
  store i32 %39, ptr %33, align 4
  br label %40

40:                                               ; preds = %20, %37, %25, %2
  ret void
}